target datalayout = "e-m:e-p270:32:32-p271:32:32-p272:64:64-i64:64-i128:128-f80:128-n8:16:32:64-S128"
target triple = "x86_64-pc-linux-gnu"

%"struct.duckdb_libpgquery::PGListCell" = type { %union.anon, ptr }
%union.anon = type { ptr }
%"struct.duckdb_libpgquery::PGValue" = type { i32, %"union.duckdb_libpgquery::PGValue::ValUnion" }
%"union.duckdb_libpgquery::PGValue::ValUnion" = type { i64 }
%"struct.duckdb_libpgquery::PGResTarget" = type { i32, ptr, ptr, ptr, i32 }
%"struct.duckdb_libpgquery::PGList" = type { i32, i32, ptr, ptr }
%"struct.duckdb_libpgquery::PGSelectStmt" = type { i32, ptr, ptr, ptr, ptr, ptr, ptr, ptr, ptr, ptr, ptr, ptr, ptr, ptr, ptr, ptr, ptr, ptr, i32, i8, i8, i8, ptr, ptr }
%"struct.duckdb_libpgquery::PGColumnRef" = type { i32, ptr, i32 }
%"struct.duckdb_libpgquery::PGWithClause" = type { i32, ptr, i8, i32 }
%"struct.duckdb_libpgquery::PGCommonTableExpr" = type { i32, ptr, ptr, i32, ptr, i32, i8, i32, ptr, ptr, ptr, ptr }
%"struct.duckdb_libpgquery::PGNode" = type { i32 }
%"struct.duckdb_libpgquery::PGAIndirection" = type { i32, ptr, ptr }

@.str.171 = private unnamed_addr constant [20 x i8] c"improper use of \22*\22\00", align 1

; Function Attrs: mustprogress uwtable
define internal noundef ptr @_ZN17duckdb_libpgqueryL17check_indirectionEPNS_6PGListEPv(ptr noundef %0, ptr noundef %1) #0 {
  %3 = alloca ptr, align 8
  %4 = alloca ptr, align 8
  %5 = alloca ptr, align 8
  store ptr %0, ptr %3, align 8, !tbaa !286
  store ptr %1, ptr %4, align 8, !tbaa !3
  call void @llvm.lifetime.start.p0(i64 8, ptr %5) #13
  %6 = load ptr, ptr %3, align 8, !tbaa !286
  %7 = call noundef ptr @_ZN17duckdb_libpgqueryL9list_headEPKNS_6PGListE(ptr noundef %6)
  store ptr %7, ptr %5, align 8, !tbaa !123
  br label %8

8:                                                ; preds = %27, %2
  %9 = load ptr, ptr %5, align 8, !tbaa !123
  %10 = icmp ne ptr %9, null
  br i1 %10, label %11, label %31

11:                                               ; preds = %8
  %12 = load ptr, ptr %5, align 8, !tbaa !123
  %13 = getelementptr inbounds nuw %"struct.duckdb_libpgquery::PGListCell", ptr %12, i32 0, i32 0
  %14 = load ptr, ptr %13, align 8, !tbaa !22
  %15 = getelementptr inbounds nuw %"struct.duckdb_libpgquery::PGNode", ptr %14, i32 0, i32 0
  %16 = load i32, ptr %15, align 4, !tbaa !460
  %17 = icmp eq i32 %16, 357
  br i1 %17, label %18, label %26

18:                                               ; preds = %11
  %19 = load ptr, ptr %5, align 8, !tbaa !123
  %20 = getelementptr inbounds nuw %"struct.duckdb_libpgquery::PGListCell", ptr %19, i32 0, i32 1
  %21 = load ptr, ptr %20, align 8, !tbaa !85
  %22 = icmp ne ptr %21, null
  br i1 %22, label %23, label %25

23:                                               ; preds = %18
  %24 = load ptr, ptr %4, align 8, !tbaa !3
  call void @_ZN17duckdb_libpgquery15scanner_yyerrorEPKcPv(ptr noundef @.str.171, ptr noundef %24)
  br label %25

25:                                               ; preds = %23, %18
  br label %26

26:                                               ; preds = %25, %11
  br label %27

27:                                               ; preds = %26
  %28 = load ptr, ptr %5, align 8, !tbaa !123
  %29 = getelementptr inbounds nuw %"struct.duckdb_libpgquery::PGListCell", ptr %28, i32 0, i32 1
  %30 = load ptr, ptr %29, align 8, !tbaa !85
  store ptr %30, ptr %5, align 8, !tbaa !123
  br label %8, !llvm.loop !737

31:                                               ; preds = %8
  %32 = load ptr, ptr %3, align 8, !tbaa !286
  call void @llvm.lifetime.end.p0(i64 8, ptr %5) #13
  ret ptr %32
}

; Function Attrs: mustprogress uwtable
define internal noundef ptr @_ZN17duckdb_libpgqueryL13makeColumnRefEPcPNS_6PGListEiPv(ptr noundef %0, ptr noundef %1, i32 noundef %2, ptr noundef %3) #0 {
  %5 = alloca ptr, align 8
  %6 = alloca ptr, align 8
  %7 = alloca ptr, align 8
  %8 = alloca i32, align 4
  %9 = alloca ptr, align 8
  %10 = alloca ptr, align 8
  %11 = alloca i32, align 4
  %12 = alloca ptr, align 8
  %13 = alloca ptr, align 8
  %14 = alloca i32, align 4
  store ptr %0, ptr %6, align 8, !tbaa !470
  store ptr %1, ptr %7, align 8, !tbaa !286
  store i32 %2, ptr %8, align 4, !tbaa !7
  store ptr %3, ptr %9, align 8, !tbaa !3
  call void @llvm.lifetime.start.p0(i64 8, ptr %10) #13
  %15 = call noundef ptr @_ZN17duckdb_libpgquery7newNodeEmNS_9PGNodeTagE(i64 noundef 24, i32 noundef 353)
  store ptr %15, ptr %10, align 8, !tbaa !359
  call void @llvm.lifetime.start.p0(i64 4, ptr %11) #13
  store i32 0, ptr %11, align 4, !tbaa !7
  call void @llvm.lifetime.start.p0(i64 8, ptr %12) #13
  %16 = load i32, ptr %8, align 4, !tbaa !7
  %17 = load ptr, ptr %10, align 8, !tbaa !359
  %18 = getelementptr inbounds nuw %"struct.duckdb_libpgquery::PGColumnRef", ptr %17, i32 0, i32 2
  store i32 %16, ptr %18, align 8, !tbaa !363
  %19 = load ptr, ptr %7, align 8, !tbaa !286
  %20 = call noundef ptr @_ZN17duckdb_libpgqueryL9list_headEPKNS_6PGListE(ptr noundef %19)
  store ptr %20, ptr %12, align 8, !tbaa !123
  br label %21

21:                                               ; preds = %87, %4
  %22 = load ptr, ptr %12, align 8, !tbaa !123
  %23 = icmp ne ptr %22, null
  br i1 %23, label %24, label %91

24:                                               ; preds = %21
  %25 = load ptr, ptr %12, align 8, !tbaa !123
  %26 = getelementptr inbounds nuw %"struct.duckdb_libpgquery::PGListCell", ptr %25, i32 0, i32 0
  %27 = load ptr, ptr %26, align 8, !tbaa !22
  %28 = getelementptr inbounds nuw %"struct.duckdb_libpgquery::PGNode", ptr %27, i32 0, i32 0
  %29 = load i32, ptr %28, align 4, !tbaa !460
  %30 = icmp eq i32 %29, 358
  br i1 %30, label %31, label %68

31:                                               ; preds = %24
  call void @llvm.lifetime.start.p0(i64 8, ptr %13) #13
  %32 = call noundef ptr @_ZN17duckdb_libpgquery7newNodeEmNS_9PGNodeTagE(i64 noundef 24, i32 noundef 359)
  store ptr %32, ptr %13, align 8, !tbaa !513
  %33 = load i32, ptr %11, align 4, !tbaa !7
  %34 = icmp eq i32 %33, 0
  br i1 %34, label %35, label %46

35:                                               ; preds = %31
  %36 = load ptr, ptr %6, align 8, !tbaa !470
  %37 = call noundef ptr @_ZN17duckdb_libpgquery10makeStringEPKc(ptr noundef %36)
  %38 = call noundef ptr @_ZN17duckdb_libpgquery5lconsEPvPNS_6PGListE(ptr noundef %37, ptr noundef null)
  %39 = load ptr, ptr %10, align 8, !tbaa !359
  %40 = getelementptr inbounds nuw %"struct.duckdb_libpgquery::PGColumnRef", ptr %39, i32 0, i32 1
  store ptr %38, ptr %40, align 8, !tbaa !361
  %41 = load ptr, ptr %7, align 8, !tbaa !286
  %42 = load ptr, ptr %9, align 8, !tbaa !3
  %43 = call noundef ptr @_ZN17duckdb_libpgqueryL17check_indirectionEPNS_6PGListEPv(ptr noundef %41, ptr noundef %42)
  %44 = load ptr, ptr %13, align 8, !tbaa !513
  %45 = getelementptr inbounds nuw %"struct.duckdb_libpgquery::PGAIndirection", ptr %44, i32 0, i32 2
  store ptr %43, ptr %45, align 8, !tbaa !517
  br label %63

46:                                               ; preds = %31
  %47 = load ptr, ptr %7, align 8, !tbaa !286
  %48 = load i32, ptr %11, align 4, !tbaa !7
  %49 = call noundef ptr @_ZN17duckdb_libpgquery14list_copy_tailEPKNS_6PGListEi(ptr noundef %47, i32 noundef %48)
  %50 = load ptr, ptr %9, align 8, !tbaa !3
  %51 = call noundef ptr @_ZN17duckdb_libpgqueryL17check_indirectionEPNS_6PGListEPv(ptr noundef %49, ptr noundef %50)
  %52 = load ptr, ptr %13, align 8, !tbaa !513
  %53 = getelementptr inbounds nuw %"struct.duckdb_libpgquery::PGAIndirection", ptr %52, i32 0, i32 2
  store ptr %51, ptr %53, align 8, !tbaa !517
  %54 = load ptr, ptr %7, align 8, !tbaa !286
  %55 = load i32, ptr %11, align 4, !tbaa !7
  %56 = call noundef ptr @_ZN17duckdb_libpgquery13list_truncateEPNS_6PGListEi(ptr noundef %54, i32 noundef %55)
  store ptr %56, ptr %7, align 8, !tbaa !286
  %57 = load ptr, ptr %6, align 8, !tbaa !470
  %58 = call noundef ptr @_ZN17duckdb_libpgquery10makeStringEPKc(ptr noundef %57)
  %59 = load ptr, ptr %7, align 8, !tbaa !286
  %60 = call noundef ptr @_ZN17duckdb_libpgquery5lconsEPvPNS_6PGListE(ptr noundef %58, ptr noundef %59)
  %61 = load ptr, ptr %10, align 8, !tbaa !359
  %62 = getelementptr inbounds nuw %"struct.duckdb_libpgquery::PGColumnRef", ptr %61, i32 0, i32 1
  store ptr %60, ptr %62, align 8, !tbaa !361
  br label %63

63:                                               ; preds = %46, %35
  %64 = load ptr, ptr %10, align 8, !tbaa !359
  %65 = load ptr, ptr %13, align 8, !tbaa !513
  %66 = getelementptr inbounds nuw %"struct.duckdb_libpgquery::PGAIndirection", ptr %65, i32 0, i32 1
  store ptr %64, ptr %66, align 8, !tbaa !515
  %67 = load ptr, ptr %13, align 8, !tbaa !513
  store ptr %67, ptr %5, align 8
  store i32 1, ptr %14, align 4
  call void @llvm.lifetime.end.p0(i64 8, ptr %13) #13
  br label %99

68:                                               ; preds = %24
  %69 = load ptr, ptr %12, align 8, !tbaa !123
  %70 = getelementptr inbounds nuw %"struct.duckdb_libpgquery::PGListCell", ptr %69, i32 0, i32 0
  %71 = load ptr, ptr %70, align 8, !tbaa !22
  %72 = getelementptr inbounds nuw %"struct.duckdb_libpgquery::PGNode", ptr %71, i32 0, i32 0
  %73 = load i32, ptr %72, align 4, !tbaa !460
  %74 = icmp eq i32 %73, 357
  br i1 %74, label %75, label %83

75:                                               ; preds = %68
  %76 = load ptr, ptr %12, align 8, !tbaa !123
  %77 = getelementptr inbounds nuw %"struct.duckdb_libpgquery::PGListCell", ptr %76, i32 0, i32 1
  %78 = load ptr, ptr %77, align 8, !tbaa !85
  %79 = icmp ne ptr %78, null
  br i1 %79, label %80, label %82

80:                                               ; preds = %75
  %81 = load ptr, ptr %9, align 8, !tbaa !3
  call void @_ZN17duckdb_libpgquery15scanner_yyerrorEPKcPv(ptr noundef @.str.171, ptr noundef %81)
  br label %82

82:                                               ; preds = %80, %75
  br label %83

83:                                               ; preds = %82, %68
  br label %84

84:                                               ; preds = %83
  %85 = load i32, ptr %11, align 4, !tbaa !7
  %86 = add nsw i32 %85, 1
  store i32 %86, ptr %11, align 4, !tbaa !7
  br label %87

87:                                               ; preds = %84
  %88 = load ptr, ptr %12, align 8, !tbaa !123
  %89 = getelementptr inbounds nuw %"struct.duckdb_libpgquery::PGListCell", ptr %88, i32 0, i32 1
  %90 = load ptr, ptr %89, align 8, !tbaa !85
  store ptr %90, ptr %12, align 8, !tbaa !123
  br label %21, !llvm.loop !803

91:                                               ; preds = %21
  %92 = load ptr, ptr %6, align 8, !tbaa !470
  %93 = call noundef ptr @_ZN17duckdb_libpgquery10makeStringEPKc(ptr noundef %92)
  %94 = load ptr, ptr %7, align 8, !tbaa !286
  %95 = call noundef ptr @_ZN17duckdb_libpgquery5lconsEPvPNS_6PGListE(ptr noundef %93, ptr noundef %94)
  %96 = load ptr, ptr %10, align 8, !tbaa !359
  %97 = getelementptr inbounds nuw %"struct.duckdb_libpgquery::PGColumnRef", ptr %96, i32 0, i32 1
  store ptr %95, ptr %97, align 8, !tbaa !361
  %98 = load ptr, ptr %10, align 8, !tbaa !359
  store ptr %98, ptr %5, align 8
  store i32 1, ptr %14, align 4
  br label %99

99:                                               ; preds = %91, %63
  call void @llvm.lifetime.end.p0(i64 8, ptr %12) #13
  call void @llvm.lifetime.end.p0(i64 4, ptr %11) #13
  call void @llvm.lifetime.end.p0(i64 8, ptr %10) #13
  %100 = load ptr, ptr %5, align 8
  ret ptr %100
}

; Function Attrs: inlinehint mustprogress nounwind uwtable
define internal noundef ptr @_ZN17duckdb_libpgqueryL9list_headEPKNS_6PGListE(ptr noundef %0) #5 {
  %2 = alloca ptr, align 8
  store ptr %0, ptr %2, align 8, !tbaa !286
  %3 = load ptr, ptr %2, align 8, !tbaa !286
  %4 = icmp ne ptr %3, null
  br i1 %4, label %5, label %9

5:                                                ; preds = %1
  %6 = load ptr, ptr %2, align 8, !tbaa !286
  %7 = getelementptr inbounds nuw %"struct.duckdb_libpgquery::PGList", ptr %6, i32 0, i32 2
  %8 = load ptr, ptr %7, align 8, !tbaa !533
  br label %10

9:                                                ; preds = %1
  br label %10

10:                                               ; preds = %9, %5
  %11 = phi ptr [ %8, %5 ], [ null, %9 ]
  ret ptr %11
}

; Function Attrs: mustprogress uwtable
define internal noundef ptr @_ZN17duckdb_libpgqueryL23makeRecursiveViewSelectEPcPNS_6PGListEPNS_6PGNodeE(ptr noundef %0, ptr noundef %1, ptr noundef %2) #0 {
  %4 = alloca ptr, align 8
  %5 = alloca ptr, align 8
  %6 = alloca ptr, align 8
  %7 = alloca ptr, align 8
  %8 = alloca ptr, align 8
  %9 = alloca ptr, align 8
  %10 = alloca ptr, align 8
  %11 = alloca ptr, align 8
  %12 = alloca ptr, align 8
  store ptr %0, ptr %4, align 8, !tbaa !470
  store ptr %1, ptr %5, align 8, !tbaa !286
  store ptr %2, ptr %6, align 8, !tbaa !408
  call void @llvm.lifetime.start.p0(i64 8, ptr %7) #13
  %13 = call noundef ptr @_ZN17duckdb_libpgquery7newNodeEmNS_9PGNodeTagE(i64 noundef 168, i32 noundef 232)
  store ptr %13, ptr %7, align 8, !tbaa !343
  call void @llvm.lifetime.start.p0(i64 8, ptr %8) #13
  %14 = call noundef ptr @_ZN17duckdb_libpgquery7newNodeEmNS_9PGNodeTagE(i64 noundef 24, i32 noundef 392)
  store ptr %14, ptr %8, align 8, !tbaa !753
  call void @llvm.lifetime.start.p0(i64 8, ptr %9) #13
  %15 = call noundef ptr @_ZN17duckdb_libpgquery7newNodeEmNS_9PGNodeTagE(i64 noundef 88, i32 noundef 395)
  store ptr %15, ptr %9, align 8, !tbaa !384
  call void @llvm.lifetime.start.p0(i64 8, ptr %10) #13
  store ptr null, ptr %10, align 8, !tbaa !286
  call void @llvm.lifetime.start.p0(i64 8, ptr %11) #13
  %16 = load ptr, ptr %4, align 8, !tbaa !470
  %17 = load ptr, ptr %9, align 8, !tbaa !384
  %18 = getelementptr inbounds nuw %"struct.duckdb_libpgquery::PGCommonTableExpr", ptr %17, i32 0, i32 1
  store ptr %16, ptr %18, align 8, !tbaa !386
  %19 = load ptr, ptr %5, align 8, !tbaa !286
  %20 = load ptr, ptr %9, align 8, !tbaa !384
  %21 = getelementptr inbounds nuw %"struct.duckdb_libpgquery::PGCommonTableExpr", ptr %20, i32 0, i32 2
  store ptr %19, ptr %21, align 8, !tbaa !389
  %22 = load ptr, ptr %6, align 8, !tbaa !408
  %23 = load ptr, ptr %9, align 8, !tbaa !384
  %24 = getelementptr inbounds nuw %"struct.duckdb_libpgquery::PGCommonTableExpr", ptr %23, i32 0, i32 4
  store ptr %22, ptr %24, align 8, !tbaa !391
  %25 = load ptr, ptr %9, align 8, !tbaa !384
  %26 = getelementptr inbounds nuw %"struct.duckdb_libpgquery::PGCommonTableExpr", ptr %25, i32 0, i32 5
  store i32 -1, ptr %26, align 8, !tbaa !392
  %27 = load ptr, ptr %8, align 8, !tbaa !753
  %28 = getelementptr inbounds nuw %"struct.duckdb_libpgquery::PGWithClause", ptr %27, i32 0, i32 2
  store i8 1, ptr %28, align 8, !tbaa !382
  %29 = load ptr, ptr %9, align 8, !tbaa !384
  %30 = call noundef ptr @_ZN17duckdb_libpgquery5lconsEPvPNS_6PGListE(ptr noundef %29, ptr noundef null)
  %31 = load ptr, ptr %8, align 8, !tbaa !753
  %32 = getelementptr inbounds nuw %"struct.duckdb_libpgquery::PGWithClause", ptr %31, i32 0, i32 1
  store ptr %30, ptr %32, align 8, !tbaa !380
  %33 = load ptr, ptr %8, align 8, !tbaa !753
  %34 = getelementptr inbounds nuw %"struct.duckdb_libpgquery::PGWithClause", ptr %33, i32 0, i32 3
  store i32 -1, ptr %34, align 4, !tbaa !383
  %35 = load ptr, ptr %5, align 8, !tbaa !286
  %36 = call noundef ptr @_ZN17duckdb_libpgqueryL9list_headEPKNS_6PGListE(ptr noundef %35)
  store ptr %36, ptr %11, align 8, !tbaa !123
  br label %37

37:                                               ; preds = %59, %3
  %38 = load ptr, ptr %11, align 8, !tbaa !123
  %39 = icmp ne ptr %38, null
  br i1 %39, label %40, label %63

40:                                               ; preds = %37
  call void @llvm.lifetime.start.p0(i64 8, ptr %12) #13
  %41 = call noundef ptr @_ZN17duckdb_libpgquery7newNodeEmNS_9PGNodeTagE(i64 noundef 40, i32 noundef 361)
  store ptr %41, ptr %12, align 8, !tbaa !124
  %42 = load ptr, ptr %12, align 8, !tbaa !124
  %43 = getelementptr inbounds nuw %"struct.duckdb_libpgquery::PGResTarget", ptr %42, i32 0, i32 1
  store ptr null, ptr %43, align 8, !tbaa !118
  %44 = load ptr, ptr %12, align 8, !tbaa !124
  %45 = getelementptr inbounds nuw %"struct.duckdb_libpgquery::PGResTarget", ptr %44, i32 0, i32 2
  store ptr null, ptr %45, align 8, !tbaa !120
  %46 = load ptr, ptr %11, align 8, !tbaa !123
  %47 = getelementptr inbounds nuw %"struct.duckdb_libpgquery::PGListCell", ptr %46, i32 0, i32 0
  %48 = load ptr, ptr %47, align 8, !tbaa !22
  %49 = getelementptr inbounds nuw %"struct.duckdb_libpgquery::PGValue", ptr %48, i32 0, i32 1
  %50 = load ptr, ptr %49, align 8, !tbaa !22
  %51 = call noundef ptr @_ZN17duckdb_libpgqueryL13makeColumnRefEPcPNS_6PGListEiPv(ptr noundef %50, ptr noundef null, i32 noundef -1, ptr noundef null)
  %52 = load ptr, ptr %12, align 8, !tbaa !124
  %53 = getelementptr inbounds nuw %"struct.duckdb_libpgquery::PGResTarget", ptr %52, i32 0, i32 3
  store ptr %51, ptr %53, align 8, !tbaa !121
  %54 = load ptr, ptr %12, align 8, !tbaa !124
  %55 = getelementptr inbounds nuw %"struct.duckdb_libpgquery::PGResTarget", ptr %54, i32 0, i32 4
  store i32 -1, ptr %55, align 8, !tbaa !122
  %56 = load ptr, ptr %10, align 8, !tbaa !286
  %57 = load ptr, ptr %12, align 8, !tbaa !124
  %58 = call noundef ptr @_ZN17duckdb_libpgquery7lappendEPNS_6PGListEPv(ptr noundef %56, ptr noundef %57)
  store ptr %58, ptr %10, align 8, !tbaa !286
  call void @llvm.lifetime.end.p0(i64 8, ptr %12) #13
  br label %59

59:                                               ; preds = %40
  %60 = load ptr, ptr %11, align 8, !tbaa !123
  %61 = getelementptr inbounds nuw %"struct.duckdb_libpgquery::PGListCell", ptr %60, i32 0, i32 1
  %62 = load ptr, ptr %61, align 8, !tbaa !85
  store ptr %62, ptr %11, align 8, !tbaa !123
  br label %37, !llvm.loop !815

63:                                               ; preds = %37
  %64 = load ptr, ptr %8, align 8, !tbaa !753
  %65 = load ptr, ptr %7, align 8, !tbaa !343
  %66 = getelementptr inbounds nuw %"struct.duckdb_libpgquery::PGSelectStmt", ptr %65, i32 0, i32 17
  store ptr %64, ptr %66, align 8, !tbaa !760
  %67 = load ptr, ptr %10, align 8, !tbaa !286
  %68 = load ptr, ptr %7, align 8, !tbaa !343
  %69 = getelementptr inbounds nuw %"struct.duckdb_libpgquery::PGSelectStmt", ptr %68, i32 0, i32 3
  store ptr %67, ptr %69, align 8, !tbaa !345
  %70 = load ptr, ptr %4, align 8, !tbaa !470
  %71 = call noundef ptr @_ZN17duckdb_libpgquery12makeRangeVarEPcS0_i(ptr noundef null, ptr noundef %70, i32 noundef -1)
  %72 = call noundef ptr @_ZN17duckdb_libpgquery5lconsEPvPNS_6PGListE(ptr noundef %71, ptr noundef null)
  %73 = load ptr, ptr %7, align 8, !tbaa !343
  %74 = getelementptr inbounds nuw %"struct.duckdb_libpgquery::PGSelectStmt", ptr %73, i32 0, i32 4
  store ptr %72, ptr %74, align 8, !tbaa !350
  %75 = load ptr, ptr %7, align 8, !tbaa !343
  call void @llvm.lifetime.end.p0(i64 8, ptr %11) #13
  call void @llvm.lifetime.end.p0(i64 8, ptr %10) #13
  call void @llvm.lifetime.end.p0(i64 8, ptr %9) #13
  call void @llvm.lifetime.end.p0(i64 8, ptr %8) #13
  call void @llvm.lifetime.end.p0(i64 8, ptr %7) #13
  ret ptr %75
}