; Function Attrs: mustprogress uwtable
define internal fastcc noundef ptr @_ZN17duckdb_libpgqueryL23makeRecursiveViewSelectEPcPNS_6PGListEPNS_6PGNodeE(ptr noundef %0, ptr noundef %1, ptr noundef %2) unnamed_addr #0 {
  %4 = tail call noundef ptr @_ZN17duckdb_libpgquery7newNodeEmNS_9PGNodeTagE(i64 noundef 168, i32 noundef 232)
  %5 = tail call noundef ptr @_ZN17duckdb_libpgquery7newNodeEmNS_9PGNodeTagE(i64 noundef 24, i32 noundef 392)
  %6 = tail call noundef ptr @_ZN17duckdb_libpgquery7newNodeEmNS_9PGNodeTagE(i64 noundef 88, i32 noundef 395)
  %7 = getelementptr inbounds nuw i8, ptr %6, i64 8
  store ptr %0, ptr %7, align 8, !tbaa !319
  %8 = getelementptr inbounds nuw i8, ptr %6, i64 16
  store ptr %1, ptr %8, align 8, !tbaa !322
  %9 = getelementptr inbounds nuw i8, ptr %6, i64 32
  store ptr %2, ptr %9, align 8, !tbaa !324
  %10 = getelementptr inbounds nuw i8, ptr %6, i64 40
  store i32 -1, ptr %10, align 8, !tbaa !325
  %11 = getelementptr inbounds nuw i8, ptr %5, i64 16
  store i8 1, ptr %11, align 8, !tbaa !317
  %12 = tail call noundef ptr @_ZN17duckdb_libpgquery5lconsEPvPNS_6PGListE(ptr noundef %6, ptr noundef null)
  %13 = getelementptr inbounds nuw i8, ptr %5, i64 8
  store ptr %12, ptr %13, align 8, !tbaa !315
  %14 = getelementptr inbounds nuw i8, ptr %5, i64 20
  store i32 -1, ptr %14, align 4, !tbaa !318
  %.not.i = icmp eq ptr %1, null
  br i1 %.not.i, label %._crit_edge, label %_ZN17duckdb_libpgqueryL9list_headEPKNS_6PGListE.exit

_ZN17duckdb_libpgqueryL9list_headEPKNS_6PGListE.exit: ; preds = %3
  %15 = getelementptr inbounds nuw i8, ptr %1, i64 8
  %16 = load ptr, ptr %15, align 8, !tbaa !72
  %.not29 = icmp eq ptr %16, null
  br i1 %.not29, label %._crit_edge, label %.lr.ph

.lr.ph:                                           ; preds = %_ZN17duckdb_libpgqueryL9list_headEPKNS_6PGListE.exit, %.lr.ph
  %.031 = phi ptr [ %29, %.lr.ph ], [ null, %_ZN17duckdb_libpgqueryL9list_headEPKNS_6PGListE.exit ]
  %.02830 = phi ptr [ %31, %.lr.ph ], [ %16, %_ZN17duckdb_libpgqueryL9list_headEPKNS_6PGListE.exit ]
  %17 = tail call noundef ptr @_ZN17duckdb_libpgquery7newNodeEmNS_9PGNodeTagE(i64 noundef 40, i32 noundef 361)
  %18 = getelementptr inbounds nuw i8, ptr %17, i64 8
  tail call void @llvm.memset.p0.i64(ptr noundef nonnull align 8 dereferenceable(16) %18, i8 0, i64 16, i1 false)
  %19 = load ptr, ptr %.02830, align 8, !tbaa !9
  %20 = getelementptr inbounds nuw i8, ptr %19, i64 8
  %21 = load ptr, ptr %20, align 8, !tbaa !9
  %22 = tail call noundef ptr @_ZN17duckdb_libpgquery7newNodeEmNS_9PGNodeTagE(i64 noundef 24, i32 noundef 353)
  %23 = getelementptr inbounds nuw i8, ptr %22, i64 16
  store i32 -1, ptr %23, align 8, !tbaa !297
  %24 = tail call noundef ptr @_ZN17duckdb_libpgquery10makeStringEPKc(ptr noundef %21)
  %25 = tail call noundef ptr @_ZN17duckdb_libpgquery5lconsEPvPNS_6PGListE(ptr noundef %24, ptr noundef null)
  %26 = getelementptr inbounds nuw i8, ptr %22, i64 8
  store ptr %25, ptr %26, align 8, !tbaa !141
  %27 = getelementptr inbounds nuw i8, ptr %17, i64 24
  store ptr %22, ptr %27, align 8, !tbaa !107
  %28 = getelementptr inbounds nuw i8, ptr %17, i64 32
  store i32 -1, ptr %28, align 8, !tbaa !108
  %29 = tail call noundef ptr @_ZN17duckdb_libpgquery7lappendEPNS_6PGListEPv(ptr noundef %.031, ptr noundef %17)
  %30 = getelementptr inbounds nuw i8, ptr %.02830, i64 8
  %31 = load ptr, ptr %30, align 8, !tbaa !74
  %.not = icmp eq ptr %31, null
  br i1 %.not, label %._crit_edge, label %.lr.ph, !llvm.loop !612

._crit_edge:                                      ; preds = %.lr.ph, %3, %_ZN17duckdb_libpgqueryL9list_headEPKNS_6PGListE.exit
  %.0.lcssa = phi ptr [ null, %_ZN17duckdb_libpgqueryL9list_headEPKNS_6PGListE.exit ], [ null, %3 ], [ %29, %.lr.ph ]
  %32 = getelementptr inbounds nuw i8, ptr %4, i64 136
  store ptr %5, ptr %32, align 8, !tbaa !598
  %33 = getelementptr inbounds nuw i8, ptr %4, i64 24
  store ptr %.0.lcssa, ptr %33, align 8, !tbaa !281
  %34 = tail call noundef ptr @_ZN17duckdb_libpgquery12makeRangeVarEPcS0_i(ptr noundef null, ptr noundef %0, i32 noundef -1)
  %35 = tail call noundef ptr @_ZN17duckdb_libpgquery5lconsEPvPNS_6PGListE(ptr noundef %34, ptr noundef null)
  %36 = getelementptr inbounds nuw i8, ptr %4, i64 32
  store ptr %35, ptr %36, align 8, !tbaa !286
  ret ptr %4
}